target datalayout = "e-m:e-p270:32:32-p271:32:32-p272:64:64-i64:64-i128:128-f80:128-n8:16:32:64-S128"
target triple = "x86_64-pc-linux-gnu"

%struct.GifFileType = type { i32, i32, i32, i32, i8, ptr, i32, %struct.GifImageDesc, ptr, i32, ptr, i32, ptr, ptr }
%struct.GifImageDesc = type { i32, i32, i32, i32, i8, ptr }
%struct.GifFilePrivateType = type { i32, i32, i32, i32, i32, i32, i32, i32, i32, i32, i32, i32, i64, i64, ptr, ptr, ptr, [256 x i8], [4095 x i8], [4096 x i8], [4096 x i32], ptr, i8 }
%struct.ColorMapObject = type { i32, i32, i8, ptr }
%struct.SavedImage = type { %struct.GifImageDesc, ptr, i32, ptr }

; Function Attrs: nounwind uwtable
define hidden i32 @DGifGetImageDesc(ptr noundef %0) #0 {
  %2 = alloca i32, align 4
  %3 = alloca ptr, align 8
  %4 = alloca ptr, align 8
  %5 = alloca ptr, align 8
  %6 = alloca ptr, align 8
  store ptr %0, ptr %3, align 8
  %7 = load ptr, ptr %3, align 8
  %8 = getelementptr inbounds %struct.GifFileType, ptr %7, i32 0, i32 13
  %9 = load ptr, ptr %8, align 8
  store ptr %9, ptr %4, align 8
  %10 = load ptr, ptr %4, align 8
  %11 = getelementptr inbounds %struct.GifFilePrivateType, ptr %10, i32 0, i32 0
  %12 = load i32, ptr %11, align 8
  %13 = and i32 %12, 8
  %14 = icmp ne i32 %13, 0
  br i1 %14, label %18, label %15

15:                                               ; preds = %1
  %16 = load ptr, ptr %3, align 8
  %17 = getelementptr inbounds %struct.GifFileType, ptr %16, i32 0, i32 11
  store i32 111, ptr %17, align 8
  store i32 0, ptr %2, align 4
  br label %111

18:                                               ; preds = %1
  %19 = load ptr, ptr %3, align 8
  %20 = call i32 @DGifGetImageHeader(ptr noundef %19)
  %21 = icmp eq i32 %20, 0
  br i1 %21, label %22, label %23

22:                                               ; preds = %18
  store i32 0, ptr %2, align 4
  br label %111

23:                                               ; preds = %18
  %24 = load ptr, ptr %3, align 8
  %25 = getelementptr inbounds %struct.GifFileType, ptr %24, i32 0, i32 8
  %26 = load ptr, ptr %25, align 8
  %27 = icmp ne ptr %26, null
  br i1 %27, label %28, label %47

28:                                               ; preds = %23
  %29 = load ptr, ptr %3, align 8
  %30 = getelementptr inbounds %struct.GifFileType, ptr %29, i32 0, i32 8
  %31 = load ptr, ptr %30, align 8
  %32 = load ptr, ptr %3, align 8
  %33 = getelementptr inbounds %struct.GifFileType, ptr %32, i32 0, i32 6
  %34 = load i32, ptr %33, align 8
  %35 = add nsw i32 %34, 1
  %36 = sext i32 %35 to i64
  %37 = call ptr @openbsd_reallocarray(ptr noundef %31, i64 noundef %36, i64 noundef 56)
  store ptr %37, ptr %6, align 8
  %38 = load ptr, ptr %6, align 8
  %39 = icmp eq ptr %38, null
  br i1 %39, label %40, label %43

40:                                               ; preds = %28
  %41 = load ptr, ptr %3, align 8
  %42 = getelementptr inbounds %struct.GifFileType, ptr %41, i32 0, i32 11
  store i32 109, ptr %42, align 8
  store i32 0, ptr %2, align 4
  br label %111

43:                                               ; preds = %28
  %44 = load ptr, ptr %6, align 8
  %45 = load ptr, ptr %3, align 8
  %46 = getelementptr inbounds %struct.GifFileType, ptr %45, i32 0, i32 8
  store ptr %44, ptr %46, align 8
  br label %56

47:                                               ; preds = %23
  %48 = call noalias ptr @malloc(i64 noundef 56) #8
  %49 = load ptr, ptr %3, align 8
  %50 = getelementptr inbounds %struct.GifFileType, ptr %49, i32 0, i32 8
  store ptr %48, ptr %50, align 8
  %51 = icmp eq ptr %48, null
  br i1 %51, label %52, label %55

52:                                               ; preds = %47
  %53 = load ptr, ptr %3, align 8
  %54 = getelementptr inbounds %struct.GifFileType, ptr %53, i32 0, i32 11
  store i32 109, ptr %54, align 8
  store i32 0, ptr %2, align 4
  br label %111

55:                                               ; preds = %47
  br label %56

56:                                               ; preds = %55, %43
  %57 = load ptr, ptr %3, align 8
  %58 = getelementptr inbounds %struct.GifFileType, ptr %57, i32 0, i32 8
  %59 = load ptr, ptr %58, align 8
  %60 = load ptr, ptr %3, align 8
  %61 = getelementptr inbounds %struct.GifFileType, ptr %60, i32 0, i32 6
  %62 = load i32, ptr %61, align 8
  %63 = sext i32 %62 to i64
  %64 = getelementptr inbounds %struct.SavedImage, ptr %59, i64 %63
  store ptr %64, ptr %5, align 8
  %65 = load ptr, ptr %5, align 8
  %66 = getelementptr inbounds %struct.SavedImage, ptr %65, i32 0, i32 0
  %67 = load ptr, ptr %3, align 8
  %68 = getelementptr inbounds %struct.GifFileType, ptr %67, i32 0, i32 7
  call void @llvm.memcpy.p0.p0.i64(ptr align 8 %66, ptr align 8 %68, i64 32, i1 false)
  %69 = load ptr, ptr %3, align 8
  %70 = getelementptr inbounds %struct.GifFileType, ptr %69, i32 0, i32 7
  %71 = getelementptr inbounds %struct.GifImageDesc, ptr %70, i32 0, i32 5
  %72 = load ptr, ptr %71, align 8
  %73 = icmp ne ptr %72, null
  br i1 %73, label %74, label %100

74:                                               ; preds = %56
  %75 = load ptr, ptr %3, align 8
  %76 = getelementptr inbounds %struct.GifFileType, ptr %75, i32 0, i32 7
  %77 = getelementptr inbounds %struct.GifImageDesc, ptr %76, i32 0, i32 5
  %78 = load ptr, ptr %77, align 8
  %79 = getelementptr inbounds %struct.ColorMapObject, ptr %78, i32 0, i32 0
  %80 = load i32, ptr %79, align 8
  %81 = load ptr, ptr %3, align 8
  %82 = getelementptr inbounds %struct.GifFileType, ptr %81, i32 0, i32 7
  %83 = getelementptr inbounds %struct.GifImageDesc, ptr %82, i32 0, i32 5
  %84 = load ptr, ptr %83, align 8
  %85 = getelementptr inbounds %struct.ColorMapObject, ptr %84, i32 0, i32 3
  %86 = load ptr, ptr %85, align 8
  %87 = call ptr @GifMakeMapObject(i32 noundef %80, ptr noundef %86)
  %88 = load ptr, ptr %5, align 8
  %89 = getelementptr inbounds %struct.SavedImage, ptr %88, i32 0, i32 0
  %90 = getelementptr inbounds %struct.GifImageDesc, ptr %89, i32 0, i32 5
  store ptr %87, ptr %90, align 8
  %91 = load ptr, ptr %5, align 8
  %92 = getelementptr inbounds %struct.SavedImage, ptr %91, i32 0, i32 0
  %93 = getelementptr inbounds %struct.GifImageDesc, ptr %92, i32 0, i32 5
  %94 = load ptr, ptr %93, align 8
  %95 = icmp eq ptr %94, null
  br i1 %95, label %96, label %99

96:                                               ; preds = %74
  %97 = load ptr, ptr %3, align 8
  %98 = getelementptr inbounds %struct.GifFileType, ptr %97, i32 0, i32 11
  store i32 109, ptr %98, align 8
  store i32 0, ptr %2, align 4
  br label %111

99:                                               ; preds = %74
  br label %100

100:                                              ; preds = %99, %56
  %101 = load ptr, ptr %5, align 8
  %102 = getelementptr inbounds %struct.SavedImage, ptr %101, i32 0, i32 1
  store ptr null, ptr %102, align 8
  %103 = load ptr, ptr %5, align 8
  %104 = getelementptr inbounds %struct.SavedImage, ptr %103, i32 0, i32 2
  store i32 0, ptr %104, align 8
  %105 = load ptr, ptr %5, align 8
  %106 = getelementptr inbounds %struct.SavedImage, ptr %105, i32 0, i32 3
  store ptr null, ptr %106, align 8
  %107 = load ptr, ptr %3, align 8
  %108 = getelementptr inbounds %struct.GifFileType, ptr %107, i32 0, i32 6
  %109 = load i32, ptr %108, align 8
  %110 = add nsw i32 %109, 1
  store i32 %110, ptr %108, align 8
  store i32 1, ptr %2, align 4
  br label %111

111:                                              ; preds = %100, %96, %52, %40, %22, %15
  %112 = load i32, ptr %2, align 4
  ret i32 %112
}