; Function Attrs: nounwind uwtable
define hidden range(i32 0, 2) i32 @DGifGetImageDesc(ptr noundef %0) local_unnamed_addr #0 {
  %2 = getelementptr inbounds i8, ptr %0, i64 112
  %3 = load ptr, ptr %2, align 8
  %4 = load i32, ptr %3, align 8
  %5 = and i32 %4, 8
  %.not = icmp eq i32 %5, 0
  br i1 %.not, label %6, label %8

6:                                                ; preds = %1
  %7 = getelementptr inbounds i8, ptr %0, i64 96
  store i32 111, ptr %7, align 8
  br label %53

8:                                                ; preds = %1
  %9 = tail call i32 @DGifGetImageHeader(ptr noundef nonnull %0)
  %10 = icmp eq i32 %9, 0
  br i1 %10, label %53, label %11

11:                                               ; preds = %8
  %12 = getelementptr inbounds i8, ptr %0, i64 72
  %13 = load ptr, ptr %12, align 8
  %.not30 = icmp eq ptr %13, null
  br i1 %.not30, label %24, label %14

14:                                               ; preds = %11
  %15 = getelementptr inbounds i8, ptr %0, i64 32
  %16 = load i32, ptr %15, align 8
  %17 = add nsw i32 %16, 1
  %18 = sext i32 %17 to i64
  %19 = tail call ptr @openbsd_reallocarray(ptr noundef nonnull %13, i64 noundef %18, i64 noundef 56) #14
  %20 = icmp eq ptr %19, null
  br i1 %20, label %21, label %23

21:                                               ; preds = %14
  %22 = getelementptr inbounds i8, ptr %0, i64 96
  store i32 109, ptr %22, align 8
  br label %53

23:                                               ; preds = %14
  store ptr %19, ptr %12, align 8
  br label %29

24:                                               ; preds = %11
  %25 = tail call noalias dereferenceable_or_null(56) ptr @malloc(i64 noundef 56) #16
  store ptr %25, ptr %12, align 8
  %26 = icmp eq ptr %25, null
  br i1 %26, label %27, label %29

27:                                               ; preds = %24
  %28 = getelementptr inbounds i8, ptr %0, i64 96
  store i32 109, ptr %28, align 8
  br label %53

29:                                               ; preds = %24, %23
  %30 = phi ptr [ %25, %24 ], [ %19, %23 ]
  %31 = getelementptr inbounds i8, ptr %0, i64 32
  %32 = load i32, ptr %31, align 8
  %33 = sext i32 %32 to i64
  %34 = getelementptr inbounds %struct.SavedImage, ptr %30, i64 %33
  %35 = getelementptr inbounds i8, ptr %0, i64 40
  tail call void @llvm.memcpy.p0.p0.i64(ptr noundef nonnull align 8 dereferenceable(32) %34, ptr noundef nonnull align 8 dereferenceable(32) %35, i64 32, i1 false)
  %36 = getelementptr inbounds i8, ptr %0, i64 64
  %37 = load ptr, ptr %36, align 8
  %.not31 = icmp eq ptr %37, null
  br i1 %.not31, label %47, label %38

38:                                               ; preds = %29
  %39 = load i32, ptr %37, align 8
  %40 = getelementptr inbounds i8, ptr %37, i64 16
  %41 = load ptr, ptr %40, align 8
  %42 = tail call ptr @GifMakeMapObject(i32 noundef %39, ptr noundef %41) #14
  %43 = getelementptr inbounds i8, ptr %34, i64 24
  store ptr %42, ptr %43, align 8
  %44 = icmp eq ptr %42, null
  br i1 %44, label %45, label %47

45:                                               ; preds = %38
  %46 = getelementptr inbounds i8, ptr %0, i64 96
  store i32 109, ptr %46, align 8
  br label %53

47:                                               ; preds = %38, %29
  %48 = getelementptr inbounds i8, ptr %34, i64 32
  store ptr null, ptr %48, align 8
  %49 = getelementptr inbounds i8, ptr %34, i64 40
  store i32 0, ptr %49, align 8
  %50 = getelementptr inbounds i8, ptr %34, i64 48
  store ptr null, ptr %50, align 8
  %51 = load i32, ptr %31, align 8
  %52 = add nsw i32 %51, 1
  store i32 %52, ptr %31, align 8
  br label %53

53:                                               ; preds = %8, %47, %45, %27, %21, %6
  %.0 = phi i32 [ 0, %21 ], [ 0, %45 ], [ 1, %47 ], [ 0, %27 ], [ 0, %6 ], [ 0, %8 ]
  ret i32 %.0
}